; Function Attrs: mustprogress uwtable
define internal void @_ZN3ue212_GLOBAL__N_119SafeReferentVisitor3preERKNS_15ComponentRepeatE(ptr noundef nonnull align 8 dereferenceable(96) %0, ptr nonnull readnone align 8 captures(none) %1) unnamed_addr #3 align 2 {
  %3 = getelementptr inbounds nuw i8, ptr %0, i64 8
  %4 = getelementptr inbounds nuw i8, ptr %0, i64 64
  %5 = load ptr, ptr %4, align 8
  %6 = getelementptr inbounds nuw i8, ptr %0, i64 80
  %7 = load ptr, ptr %6, align 8
  %8 = getelementptr inbounds i8, ptr %7, i64 -8
  %.not.i.i = icmp eq ptr %5, %8
  br i1 %.not.i.i, label %13, label %9

9:                                                ; preds = %2
  %10 = load i64, ptr %3, align 8
  store i64 %10, ptr %5, align 8
  %11 = load ptr, ptr %4, align 8
  %12 = getelementptr inbounds nuw i8, ptr %11, i64 8
  store ptr %12, ptr %4, align 8
  br label %_ZNSt5stackImSt5dequeImSaImEEE4pushERKm.exit

13:                                               ; preds = %2
  %14 = getelementptr inbounds nuw i8, ptr %0, i64 16
  tail call void @_ZNSt5dequeImSaImEE16_M_push_back_auxIJRKmEEEvDpOT_(ptr noundef nonnull align 8 dereferenceable(80) %14, ptr noundef nonnull align 8 dereferenceable(8) %3)
  br label %_ZNSt5stackImSt5dequeImSaImEEE4pushERKm.exit

_ZNSt5stackImSt5dequeImSaImEEE4pushERKm.exit:     ; preds = %9, %13
  ret void
}